target datalayout = "e-m:e-p270:32:32-p271:32:32-p272:64:64-i64:64-i128:128-f80:128-n8:16:32:64-S128"
target triple = "x86_64-pc-linux-gnu"

%"struct.Luau::Fixture" = type { %struct.ScopedFValue, %"struct.Luau::TestFileResolver", %"struct.Luau::TestConfigResolver", %"struct.Luau::NullModuleResolver", %"class.std::unique_ptr", %"struct.Luau::Frontend", %"struct.Luau::InternalErrorReporter", %"struct.Luau::NotNull" }
%struct.ScopedFValue = type <{ ptr, i8, [7 x i8] }>
%"struct.Luau::TestFileResolver" = type { %"struct.Luau::FileResolver", %"struct.Luau::ModuleResolver", %"class.std::unordered_map", %"class.std::unordered_map.9", %"class.std::unordered_map" }
%"struct.Luau::FileResolver" = type { ptr }
%"struct.Luau::ModuleResolver" = type { ptr }
%"class.std::unordered_map.9" = type { %"class.std::_Hashtable.10" }
%"class.std::_Hashtable.10" = type { ptr, i64, %"struct.std::__detail::_Hash_node_base", i64, %"struct.std::__detail::_Prime_rehash_policy", ptr }
%"struct.std::__detail::_Hash_node_base" = type { ptr }
%"struct.std::__detail::_Prime_rehash_policy" = type { float, i64 }
%"class.std::unordered_map" = type { %"class.std::_Hashtable" }
%"class.std::_Hashtable" = type { ptr, i64, %"struct.std::__detail::_Hash_node_base", i64, %"struct.std::__detail::_Prime_rehash_policy", ptr }
%"struct.Luau::TestConfigResolver" = type { %"struct.Luau::ConfigResolver", %"struct.Luau::Config", %"class.std::unordered_map.28" }
%"struct.Luau::ConfigResolver" = type { ptr }
%"struct.Luau::Config" = type { i32, %"struct.Luau::ParseOptions", %"struct.Luau::LintOptions", %"struct.Luau::LintOptions", i8, i8, %"class.std::vector.23", %"class.std::vector.23", %"class.std::unordered_map" }
%"struct.Luau::ParseOptions" = type { i8, i8 }
%"struct.Luau::LintOptions" = type { i64 }
%"class.std::vector.23" = type { %"struct.std::_Vector_base.24" }
%"struct.std::_Vector_base.24" = type { %"struct.std::_Vector_base<std::__cxx11::basic_string<char>, std::allocator<std::__cxx11::basic_string<char>>>::_Vector_impl" }
%"struct.std::_Vector_base<std::__cxx11::basic_string<char>, std::allocator<std::__cxx11::basic_string<char>>>::_Vector_impl" = type { %"struct.std::_Vector_base<std::__cxx11::basic_string<char>, std::allocator<std::__cxx11::basic_string<char>>>::_Vector_impl_data" }
%"struct.std::_Vector_base<std::__cxx11::basic_string<char>, std::allocator<std::__cxx11::basic_string<char>>>::_Vector_impl_data" = type { ptr, ptr, ptr }
%"class.std::unordered_map.28" = type { %"class.std::_Hashtable.29" }
%"class.std::_Hashtable.29" = type { ptr, i64, %"struct.std::__detail::_Hash_node_base", i64, %"struct.std::__detail::_Prime_rehash_policy", ptr }
%"struct.Luau::NullModuleResolver" = type { %"struct.Luau::ModuleResolver" }
%"class.std::unique_ptr" = type { %"struct.std::__uniq_ptr_data" }
%"struct.std::__uniq_ptr_data" = type { %"class.std::__uniq_ptr_impl" }
%"class.std::__uniq_ptr_impl" = type { %"class.std::tuple" }
%"class.std::tuple" = type { %"struct.std::_Tuple_impl" }
%"struct.std::_Tuple_impl" = type { %"struct.std::_Head_base.43" }
%"struct.std::_Head_base.43" = type { ptr }
%"struct.Luau::Frontend" = type { %"class.std::unordered_map.44", %"class.std::unordered_map.58", %"struct.Luau::BuiltinTypes", %"struct.Luau::NotNull", ptr, %"struct.Luau::FrontendModuleResolver", %"struct.Luau::FrontendModuleResolver", %"struct.Luau::GlobalTypes", %"struct.Luau::GlobalTypes", ptr, %"struct.Luau::FrontendOptions", %"struct.Luau::InternalErrorReporter", %"class.std::function.163", %"class.std::function.165", %"class.std::unordered_map.168", %"class.std::unordered_map.182", %"class.std::unordered_map.196", %"struct.Luau::Frontend::Stats", %"class.std::vector.23" }
%"class.std::unordered_map.44" = type { %"class.std::_Hashtable.45" }
%"class.std::_Hashtable.45" = type { ptr, i64, %"struct.std::__detail::_Hash_node_base", i64, %"struct.std::__detail::_Prime_rehash_policy", ptr }
%"class.std::unordered_map.58" = type { %"class.std::_Hashtable.59" }
%"class.std::_Hashtable.59" = type { ptr, i64, %"struct.std::__detail::_Hash_node_base", i64, %"struct.std::__detail::_Prime_rehash_policy", ptr }
%"struct.Luau::BuiltinTypes" = type { %"class.std::unique_ptr.72", i8, ptr, ptr, ptr, ptr, ptr, ptr, ptr, ptr, ptr, ptr, ptr, ptr, ptr, ptr, ptr, ptr, ptr, ptr, ptr, ptr, ptr, ptr, ptr, ptr, ptr, ptr }
%"class.std::unique_ptr.72" = type { %"struct.std::__uniq_ptr_data.73" }
%"struct.std::__uniq_ptr_data.73" = type { %"class.std::__uniq_ptr_impl.74" }
%"class.std::__uniq_ptr_impl.74" = type { %"class.std::tuple.75" }
%"class.std::tuple.75" = type { %"struct.std::_Tuple_impl.76" }
%"struct.std::_Tuple_impl.76" = type { %"struct.std::_Head_base.79" }
%"struct.std::_Head_base.79" = type { ptr }
%"struct.Luau::FrontendModuleResolver" = type { %"struct.Luau::ModuleResolver", ptr, %"class.std::mutex", %"class.std::unordered_map.80" }
%"class.std::mutex" = type { %"class.std::__mutex_base" }
%"class.std::__mutex_base" = type { %union.pthread_mutex_t }
%union.pthread_mutex_t = type { %struct.__pthread_mutex_s }
%struct.__pthread_mutex_s = type { i32, i32, i32, i32, i32, i16, i16, %struct.__pthread_internal_list }
%struct.__pthread_internal_list = type { ptr, ptr }
%"class.std::unordered_map.80" = type { %"class.std::_Hashtable.81" }
%"class.std::_Hashtable.81" = type { ptr, i64, %"struct.std::__detail::_Hash_node_base", i64, %"struct.std::__detail::_Prime_rehash_policy", ptr }
%"struct.Luau::GlobalTypes" = type { %"struct.Luau::NotNull", %"struct.Luau::TypeArena", %"struct.Luau::SourceModule", %"class.std::shared_ptr.133" }
%"struct.Luau::TypeArena" = type { %"class.Luau::TypedAllocator", %"class.Luau::TypedAllocator.99", ptr }
%"class.Luau::TypedAllocator" = type { i8, %"class.std::vector.94", i64 }
%"class.std::vector.94" = type { %"struct.std::_Vector_base.95" }
%"struct.std::_Vector_base.95" = type { %"struct.std::_Vector_base<Luau::Type *, std::allocator<Luau::Type *>>::_Vector_impl" }
%"struct.std::_Vector_base<Luau::Type *, std::allocator<Luau::Type *>>::_Vector_impl" = type { %"struct.std::_Vector_base<Luau::Type *, std::allocator<Luau::Type *>>::_Vector_impl_data" }
%"struct.std::_Vector_base<Luau::Type *, std::allocator<Luau::Type *>>::_Vector_impl_data" = type { ptr, ptr, ptr }
%"class.Luau::TypedAllocator.99" = type { i8, %"class.std::vector.100", i64 }
%"class.std::vector.100" = type { %"struct.std::_Vector_base.101" }
%"struct.std::_Vector_base.101" = type { %"struct.std::_Vector_base<Luau::TypePackVar *, std::allocator<Luau::TypePackVar *>>::_Vector_impl" }
%"struct.std::_Vector_base<Luau::TypePackVar *, std::allocator<Luau::TypePackVar *>>::_Vector_impl" = type { %"struct.std::_Vector_base<Luau::TypePackVar *, std::allocator<Luau::TypePackVar *>>::_Vector_impl_data" }
%"struct.std::_Vector_base<Luau::TypePackVar *, std::allocator<Luau::TypePackVar *>>::_Vector_impl_data" = type { ptr, ptr, ptr }
%"struct.Luau::SourceModule" = type { %"class.std::__cxx11::basic_string", %"class.std::__cxx11::basic_string", i32, [4 x i8], %"class.std::optional", i8, %"class.std::shared_ptr", %"class.std::shared_ptr.107", %"class.std::vector.110", ptr, %"class.std::optional.115", %"class.std::vector.123", %"class.std::vector.128" }
%"class.std::__cxx11::basic_string" = type { %"struct.std::__cxx11::basic_string<char>::_Alloc_hider", i64, %union.anon.3 }
%"struct.std::__cxx11::basic_string<char>::_Alloc_hider" = type { ptr }
%union.anon.3 = type { i64, [8 x i8] }
%"class.std::optional" = type { %"struct.std::_Optional_base" }
%"struct.std::_Optional_base" = type { %"struct.std::_Optional_payload" }
%"struct.std::_Optional_payload" = type { %"struct.std::_Optional_payload.base", [7 x i8] }
%"struct.std::_Optional_payload.base" = type { %"struct.std::_Optional_payload_base.base" }
%"struct.std::_Optional_payload_base.base" = type <{ %"union.std::_Optional_payload_base<std::__cxx11::basic_string<char>>::_Storage", i8 }>
%"union.std::_Optional_payload_base<std::__cxx11::basic_string<char>>::_Storage" = type { %"class.std::__cxx11::basic_string" }
%"class.std::shared_ptr" = type { %"class.std::__shared_ptr" }
%"class.std::__shared_ptr" = type { ptr, %"class.std::__shared_count" }
%"class.std::__shared_count" = type { ptr }
%"class.std::shared_ptr.107" = type { %"class.std::__shared_ptr.108" }
%"class.std::__shared_ptr.108" = type { ptr, %"class.std::__shared_count" }
%"class.std::vector.110" = type { %"struct.std::_Vector_base.111" }
%"struct.std::_Vector_base.111" = type { %"struct.std::_Vector_base<Luau::ParseError, std::allocator<Luau::ParseError>>::_Vector_impl" }
%"struct.std::_Vector_base<Luau::ParseError, std::allocator<Luau::ParseError>>::_Vector_impl" = type { %"struct.std::_Vector_base<Luau::ParseError, std::allocator<Luau::ParseError>>::_Vector_impl_data" }
%"struct.std::_Vector_base<Luau::ParseError, std::allocator<Luau::ParseError>>::_Vector_impl_data" = type { ptr, ptr, ptr }
%"class.std::optional.115" = type { %"struct.std::_Optional_base.116" }
%"struct.std::_Optional_base.116" = type { %"struct.std::_Optional_payload.118" }
%"struct.std::_Optional_payload.118" = type { %"struct.std::_Optional_payload_base.base.120", [3 x i8] }
%"struct.std::_Optional_payload_base.base.120" = type <{ %"union.std::_Optional_payload_base<Luau::Mode>::_Storage", i8 }>
%"union.std::_Optional_payload_base<Luau::Mode>::_Storage" = type { i32 }
%"class.std::vector.123" = type { %"struct.std::_Vector_base.124" }
%"struct.std::_Vector_base.124" = type { %"struct.std::_Vector_base<Luau::HotComment, std::allocator<Luau::HotComment>>::_Vector_impl" }
%"struct.std::_Vector_base<Luau::HotComment, std::allocator<Luau::HotComment>>::_Vector_impl" = type { %"struct.std::_Vector_base<Luau::HotComment, std::allocator<Luau::HotComment>>::_Vector_impl_data" }
%"struct.std::_Vector_base<Luau::HotComment, std::allocator<Luau::HotComment>>::_Vector_impl_data" = type { ptr, ptr, ptr }
%"class.std::vector.128" = type { %"struct.std::_Vector_base.129" }
%"struct.std::_Vector_base.129" = type { %"struct.std::_Vector_base<Luau::Comment, std::allocator<Luau::Comment>>::_Vector_impl" }
%"struct.std::_Vector_base<Luau::Comment, std::allocator<Luau::Comment>>::_Vector_impl" = type { %"struct.std::_Vector_base<Luau::Comment, std::allocator<Luau::Comment>>::_Vector_impl_data" }
%"struct.std::_Vector_base<Luau::Comment, std::allocator<Luau::Comment>>::_Vector_impl_data" = type { ptr, ptr, ptr }
%"class.std::shared_ptr.133" = type { %"class.std::__shared_ptr.134" }
%"class.std::__shared_ptr.134" = type { ptr, %"class.std::__shared_count" }
%"struct.Luau::FrontendOptions" = type <{ i8, i8, i8, i8, %"class.std::optional.136", [4 x i8], %"class.std::optional.144", %"class.std::shared_ptr.152", %"class.std::optional.155", i8, [7 x i8] }>
%"class.std::optional.136" = type { %"struct.std::_Optional_base.137" }
%"struct.std::_Optional_base.137" = type { %"struct.std::_Optional_payload.139" }
%"struct.std::_Optional_payload.139" = type { %"struct.std::_Optional_payload_base.base.141", [3 x i8] }
%"struct.std::_Optional_payload_base.base.141" = type <{ %"union.std::_Optional_payload_base<unsigned int>::_Storage", i8 }>
%"union.std::_Optional_payload_base<unsigned int>::_Storage" = type { i32 }
%"class.std::optional.144" = type { %"struct.std::_Optional_base.145" }
%"struct.std::_Optional_base.145" = type { %"struct.std::_Optional_payload.147" }
%"struct.std::_Optional_payload.147" = type { %"struct.std::_Optional_payload_base.base.149", [7 x i8] }
%"struct.std::_Optional_payload_base.base.149" = type <{ %"union.std::_Optional_payload_base<Luau::LintOptions>::_Storage", i8 }>
%"union.std::_Optional_payload_base<Luau::LintOptions>::_Storage" = type { %"struct.Luau::LintOptions" }
%"class.std::shared_ptr.152" = type { %"class.std::__shared_ptr.153" }
%"class.std::__shared_ptr.153" = type { ptr, %"class.std::__shared_count" }
%"class.std::optional.155" = type { %"struct.std::_Optional_base.156" }
%"struct.std::_Optional_base.156" = type { %"struct.std::_Optional_payload.158" }
%"struct.std::_Optional_payload.158" = type { %"struct.std::_Optional_payload_base.base.160", [7 x i8] }
%"struct.std::_Optional_payload_base.base.160" = type <{ %"union.std::_Optional_payload_base<double>::_Storage", i8 }>
%"union.std::_Optional_payload_base<double>::_Storage" = type { double }
%"class.std::function.163" = type { %"class.std::_Function_base", ptr }
%"class.std::_Function_base" = type { %"union.std::_Any_data", ptr }
%"union.std::_Any_data" = type { %"union.std::_Nocopy_types" }
%"union.std::_Nocopy_types" = type { { i64, i64 } }
%"class.std::function.165" = type { %"class.std::_Function_base", ptr }
%"class.std::unordered_map.168" = type { %"class.std::_Hashtable.169" }
%"class.std::_Hashtable.169" = type { ptr, i64, %"struct.std::__detail::_Hash_node_base", i64, %"struct.std::__detail::_Prime_rehash_policy", ptr }
%"class.std::unordered_map.182" = type { %"class.std::_Hashtable.183" }
%"class.std::_Hashtable.183" = type { ptr, i64, %"struct.std::__detail::_Hash_node_base", i64, %"struct.std::__detail::_Prime_rehash_policy", ptr }
%"class.std::unordered_map.196" = type { %"class.std::_Hashtable.197" }
%"class.std::_Hashtable.197" = type { ptr, i64, %"struct.std::__detail::_Hash_node_base", i64, %"struct.std::__detail::_Prime_rehash_policy", ptr }
%"struct.Luau::Frontend::Stats" = type { i64, i64, i64, i64, double, double, double, double }
%"struct.Luau::InternalErrorReporter" = type { %"class.std::function", %"class.std::__cxx11::basic_string" }
%"class.std::function" = type { %"class.std::_Function_base", ptr }
%"struct.Luau::NotNull" = type { ptr }
%"struct.Luau::BuiltinsFixture" = type { %"struct.Luau::Fixture" }
%"struct.(anonymous namespace)::DOCTEST_ANON_CLASS_246" = type { %"struct.Luau::BuiltinsFixture" }

; Function Attrs: mustprogress nounwind uwtable
define linkonce_odr dso_local void @_ZN4Luau15BuiltinsFixtureD2Ev(ptr noundef nonnull align 8 dereferenceable(2232) %0) unnamed_addr #1 comdat align 2 {
  %2 = alloca ptr, align 8
  store ptr %0, ptr %2, align 8
  %3 = load ptr, ptr %2, align 8
  call void @_ZN4Luau7FixtureD2Ev(ptr noundef nonnull align 8 dereferenceable(2232) %3) #2
  ret void
}

; Function Attrs: mustprogress nounwind uwtable
define internal void @_ZN12_GLOBAL__N_122DOCTEST_ANON_CLASS_246D2Ev(ptr noundef nonnull align 8 dereferenceable(2232) %0) unnamed_addr #1 align 2 {
  %2 = alloca ptr, align 8
  store ptr %0, ptr %2, align 8
  %3 = load ptr, ptr %2, align 8
  call void @_ZN4Luau15BuiltinsFixtureD2Ev(ptr noundef nonnull align 8 dereferenceable(2232) %3) #2
  ret void
}

; Function Attrs: mustprogress uwtable
define internal void @_ZN12_GLOBAL__N_122DOCTEST_ANON_CLASS_246C2Ev(ptr noundef nonnull align 8 dereferenceable(2232) %0) unnamed_addr #5 align 2 {
  %2 = alloca ptr, align 8
  store ptr %0, ptr %2, align 8
  %3 = load ptr, ptr %2, align 8
  call void @_ZN4Luau15BuiltinsFixtureC2Ebb(ptr noundef nonnull align 8 dereferenceable(2232) %3, i1 noundef zeroext true, i1 noundef zeroext false)
  ret void
}

; Function Attrs: mustprogress uwtable
define internal void @_ZN12_GLOBAL__N_121DOCTEST_ANON_FUNC_247Ev() #5 personality ptr @__gxx_personality_v0 {
  %1 = alloca %"struct.(anonymous namespace)::DOCTEST_ANON_CLASS_246", align 8
  %2 = alloca ptr, align 8
  %3 = alloca i32, align 4
  call void @_ZN12_GLOBAL__N_122DOCTEST_ANON_CLASS_246C2Ev(ptr noundef nonnull align 8 dereferenceable(2232) %1)
  invoke void @_ZN12_GLOBAL__N_122DOCTEST_ANON_CLASS_2461fEv(ptr noundef nonnull align 8 dereferenceable(2232) %1)
          to label %4 unwind label %5

4:                                                ; preds = %0
  call void @_ZN12_GLOBAL__N_122DOCTEST_ANON_CLASS_246D2Ev(ptr noundef nonnull align 8 dereferenceable(2232) %1) #2
  ret void

5:                                                ; preds = %0
  %6 = landingpad { ptr, i32 }
          cleanup
  %7 = extractvalue { ptr, i32 } %6, 0
  store ptr %7, ptr %2, align 8
  %8 = extractvalue { ptr, i32 } %6, 1
  store i32 %8, ptr %3, align 4
  call void @_ZN12_GLOBAL__N_122DOCTEST_ANON_CLASS_246D2Ev(ptr noundef nonnull align 8 dereferenceable(2232) %1) #2
  br label %9

9:                                                ; preds = %5
  %10 = load ptr, ptr %2, align 8
  %11 = load i32, ptr %3, align 4
  %12 = insertvalue { ptr, i32 } poison, ptr %10, 0
  %13 = insertvalue { ptr, i32 } %12, i32 %11, 1
  resume { ptr, i32 } %13
}